; ModuleID = 'source-C-CXX/28/301.c'
source_filename = "source-C-CXX/28/301.c"
target datalayout = "e-m:e-p270:32:32-p271:32:32-p272:64:64-i64:64-f80:128-n8:16:32:64-S128"
target triple = "x86_64-pc-linux-gnu"

@.str = private unnamed_addr constant [3 x i8] c"%d\00", align 1
@.str.1 = private unnamed_addr constant [7 x i8] c"%.3lf\0A\00", align 1

; Function Attrs: nofree nosync nounwind readnone sspstrong uwtable
define dso_local i32 @fblq(i32 %0) local_unnamed_addr #0 {
  br label %2

2:                                                ; preds = %5, %1
  %3 = phi i32 [ 0, %1 ], [ %9, %5 ]
  %4 = phi i32 [ %0, %1 ], [ %8, %5 ]
  switch i32 %4, label %5 [
    i32 0, label %10
    i32 1, label %11
  ]

5:                                                ; preds = %2
  %6 = add nsw i32 %4, -1
  %7 = tail call i32 @fblq(i32 %6)
  %8 = add nsw i32 %4, -2
  %9 = add nsw i32 %7, %3
  br label %2

10:                                               ; preds = %2
  br label %11

11:                                               ; preds = %2, %10
  %12 = phi i32 [ 1, %10 ], [ 2, %2 ]
  %13 = add nsw i32 %12, %3
  ret i32 %13
}

; Function Attrs: nofree nounwind sspstrong uwtable
define dso_local i32 @main() local_unnamed_addr #1 {
  %1 = alloca i32, align 4
  %2 = alloca i32, align 4
  %3 = bitcast i32* %1 to i8*
  call void @llvm.lifetime.start.p0i8(i64 4, i8* nonnull %3) #4
  %4 = bitcast i32* %2 to i8*
  call void @llvm.lifetime.start.p0i8(i64 4, i8* nonnull %4) #4
  %5 = call i32 (i8*, ...) @__isoc99_scanf(i8* getelementptr inbounds ([3 x i8], [3 x i8]* @.str, i64 0, i64 0), i32* nonnull %1)
  %6 = load i32, i32* %1, align 4, !tbaa !5
  %7 = icmp sgt i32 %6, 0
  br i1 %7, label %9, label %8

8:                                                ; preds = %14, %0
  call void @llvm.lifetime.end.p0i8(i64 4, i8* nonnull %4) #4
  call void @llvm.lifetime.end.p0i8(i64 4, i8* nonnull %3) #4
  ret i32 0

9:                                                ; preds = %0, %14
  %10 = phi i32 [ %17, %14 ], [ 0, %0 ]
  %11 = call i32 (i8*, ...) @__isoc99_scanf(i8* getelementptr inbounds ([3 x i8], [3 x i8]* @.str, i64 0, i64 0), i32* nonnull %2)
  %12 = load i32, i32* %2, align 4, !tbaa !5
  %13 = icmp slt i32 %12, 1
  br i1 %13, label %14, label %20

14:                                               ; preds = %20, %9
  %15 = phi double [ 0.000000e+00, %9 ], [ %29, %20 ]
  %16 = call i32 (i8*, ...) @printf(i8* nonnull dereferenceable(1) getelementptr inbounds ([7 x i8], [7 x i8]* @.str.1, i64 0, i64 0), double %15)
  %17 = add nuw nsw i32 %10, 1
  %18 = load i32, i32* %1, align 4, !tbaa !5
  %19 = icmp slt i32 %17, %18
  br i1 %19, label %9, label %8, !llvm.loop !9

20:                                               ; preds = %9, %20
  %21 = phi i32 [ %30, %20 ], [ 1, %9 ]
  %22 = phi double [ %29, %20 ], [ 0.000000e+00, %9 ]
  %23 = call i32 @fblq(i32 %21)
  %24 = sitofp i32 %23 to double
  %25 = add nsw i32 %21, -1
  %26 = call i32 @fblq(i32 %25)
  %27 = sitofp i32 %26 to double
  %28 = fdiv double %24, %27
  %29 = fadd double %22, %28
  %30 = add nuw i32 %21, 1
  %31 = icmp eq i32 %21, %12
  br i1 %31, label %14, label %20, !llvm.loop !11
}

; Function Attrs: argmemonly mustprogress nofree nosync nounwind willreturn
declare void @llvm.lifetime.start.p0i8(i64 immarg, i8* nocapture) #2

; Function Attrs: nofree nounwind
declare noundef i32 @__isoc99_scanf(i8* nocapture noundef readonly, ...) local_unnamed_addr #3

; Function Attrs: argmemonly mustprogress nofree nosync nounwind willreturn
declare void @llvm.lifetime.end.p0i8(i64 immarg, i8* nocapture) #2

; Function Attrs: nofree nounwind
declare noundef i32 @printf(i8* nocapture noundef readonly, ...) local_unnamed_addr #3


!llvm.module.flags = !{!0, !1, !2, !3}
!llvm.ident = !{!4}

!0 = !{i32 1, !"wchar_size", i32 4}
!1 = !{i32 7, !"PIC Level", i32 2}
!2 = !{i32 7, !"PIE Level", i32 2}
!3 = !{i32 7, !"uwtable", i32 1}
!4 = !{!"clang version 13.0.0"}
!5 = !{!6, !6, i64 0}
!6 = !{!"int", !7, i64 0}
!7 = !{!"omnipotent char", !8, i64 0}
!8 = !{!"Simple C/C++ TBAA"}
!9 = distinct !{!9, !10}
!10 = !{!"llvm.loop.mustprogress"}
!11 = distinct !{!11, !10}
